; Function Attrs: nounwind uwtable
define dso_local void @block_reader_release(ptr noundef %0) local_unnamed_addr #2 {
  %2 = getelementptr inbounds nuw i8, ptr %0, i64 48
  %3 = load ptr, ptr %2, align 8, !tbaa !58
  %4 = tail call i32 @inflateEnd(ptr noundef %3) #11
  %5 = load ptr, ptr %2, align 8, !tbaa !58
  tail call void @reftable_free(ptr noundef %5) #11
  %6 = getelementptr inbounds nuw i8, ptr %0, i64 56
  %7 = load ptr, ptr %6, align 8, !tbaa !57
  tail call void @reftable_free(ptr noundef %7) #11
  %8 = getelementptr inbounds nuw i8, ptr %0, i64 8
  %9 = getelementptr inbounds nuw i8, ptr %0, i64 24
  %.sroa.0.0.copyload.i = load ptr, ptr %9, align 8, !tbaa !50
  %.not.i = icmp eq ptr %.sroa.0.0.copyload.i, null
  br i1 %.not.i, label %reftable_block_done.exit, label %10

10:                                               ; preds = %1
  %.sroa.5.0..sroa_idx.i = getelementptr inbounds nuw i8, ptr %0, i64 32
  %.sroa.5.0.copyload.i = load ptr, ptr %.sroa.5.0..sroa_idx.i, align 8, !tbaa !51
  %11 = getelementptr inbounds nuw i8, ptr %.sroa.0.0.copyload.i, i64 16
  %12 = load ptr, ptr %11, align 8, !tbaa !52
  tail call void %12(ptr noundef %.sroa.5.0.copyload.i, ptr noundef nonnull %8) #11
  br label %reftable_block_done.exit

reftable_block_done.exit:                         ; preds = %1, %10
  tail call void @llvm.memset.p0.i64(ptr noundef nonnull align 8 dereferenceable(32) %8, i8 0, i64 32, i1 false)
  ret void
}